; ModuleID = '12/48.c'
source_filename = "12/48.c"
target datalayout = "e-m:e-p270:32:32-p271:32:32-p272:64:64-i64:64-f80:128-n8:16:32:64-S128"
target triple = "x86_64-pc-linux-gnu"

@.str = private unnamed_addr constant [3 x i8] c"%d\00", align 1
@.str.1 = private unnamed_addr constant [4 x i8] c"%d\0A\00", align 1

; Function Attrs: noinline nounwind uwtable
define dso_local i32 @main(i32 %0, i8** %1) #0 {
  %3 = alloca i32, align 4
  %4 = alloca i32, align 4
  %5 = alloca i8**, align 8
  %6 = alloca i32, align 4
  %7 = alloca i32, align 4
  %8 = alloca [15 x i32], align 16
  %9 = alloca i32, align 4
  %10 = alloca i32, align 4
  %11 = alloca i32, align 4
  store i32 0, i32* %3, align 4
  store i32 %0, i32* %4, align 4
  store i8** %1, i8*** %5, align 8
  br label %12

12:                                               ; preds = %2, %75
  store i32 0, i32* %10, align 4
  br label %13

13:                                               ; preds = %12, %29
  %14 = call i32 (i8*, ...) @__isoc99_scanf(i8* getelementptr inbounds ([3 x i8], [3 x i8]* @.str, i64 0, i64 0), i32* %11)
  %15 = load i32, i32* %11, align 4
  %16 = icmp eq i32 %15, -1
  br i1 %16, label %17, label %18

17:                                               ; preds = %13
  ret i32 0

18:                                               ; preds = %13
  %19 = load i32, i32* %11, align 4
  %20 = icmp eq i32 %19, 0
  br i1 %20, label %21, label %22

21:                                               ; preds = %18
  br label %30

22:                                               ; preds = %18
  %23 = load i32, i32* %11, align 4
  %24 = load i32, i32* %10, align 4
  %25 = sext i32 %24 to i64
  %26 = getelementptr inbounds [15 x i32], [15 x i32]* %8, i64 0, i64 %25
  store i32 %23, i32* %26, align 4
  %27 = load i32, i32* %10, align 4
  %28 = add nsw i32 %27, 1
  store i32 %28, i32* %10, align 4
  br label %29

29:                                               ; preds = %22
  br label %13

30:                                               ; preds = %21
  store i32 0, i32* %9, align 4
  %31 = load i32, i32* %10, align 4
  %32 = sub nsw i32 %31, 1
  store i32 %32, i32* %6, align 4
  br label %33

33:                                               ; preds = %72, %30
  %34 = load i32, i32* %6, align 4
  %35 = icmp sge i32 %34, 0
  br i1 %35, label %36, label %75

36:                                               ; preds = %33
  %37 = load i32, i32* %6, align 4
  %38 = sub nsw i32 %37, 1
  store i32 %38, i32* %7, align 4
  br label %39

39:                                               ; preds = %68, %36
  %40 = load i32, i32* %7, align 4
  %41 = icmp sge i32 %40, 0
  br i1 %41, label %42, label %71

42:                                               ; preds = %39
  %43 = load i32, i32* %6, align 4
  %44 = sext i32 %43 to i64
  %45 = getelementptr inbounds [15 x i32], [15 x i32]* %8, i64 0, i64 %44
  %46 = load i32, i32* %45, align 4
  %47 = load i32, i32* %7, align 4
  %48 = sext i32 %47 to i64
  %49 = getelementptr inbounds [15 x i32], [15 x i32]* %8, i64 0, i64 %48
  %50 = load i32, i32* %49, align 4
  %51 = mul nsw i32 %50, 2
  %52 = icmp eq i32 %46, %51
  br i1 %52, label %64, label %53

53:                                               ; preds = %42
  %54 = load i32, i32* %7, align 4
  %55 = sext i32 %54 to i64
  %56 = getelementptr inbounds [15 x i32], [15 x i32]* %8, i64 0, i64 %55
  %57 = load i32, i32* %56, align 4
  %58 = load i32, i32* %6, align 4
  %59 = sext i32 %58 to i64
  %60 = getelementptr inbounds [15 x i32], [15 x i32]* %8, i64 0, i64 %59
  %61 = load i32, i32* %60, align 4
  %62 = mul nsw i32 %61, 2
  %63 = icmp eq i32 %57, %62
  br i1 %63, label %64, label %67

64:                                               ; preds = %53, %42
  %65 = load i32, i32* %9, align 4
  %66 = add nsw i32 %65, 1
  store i32 %66, i32* %9, align 4
  br label %67

67:                                               ; preds = %64, %53
  br label %68

68:                                               ; preds = %67
  %69 = load i32, i32* %7, align 4
  %70 = add nsw i32 %69, -1
  store i32 %70, i32* %7, align 4
  br label %39

71:                                               ; preds = %39
  br label %72

72:                                               ; preds = %71
  %73 = load i32, i32* %6, align 4
  %74 = add nsw i32 %73, -1
  store i32 %74, i32* %6, align 4
  br label %33

75:                                               ; preds = %33
  %76 = load i32, i32* %9, align 4
  %77 = call i32 (i8*, ...) @printf(i8* getelementptr inbounds ([4 x i8], [4 x i8]* @.str.1, i64 0, i64 0), i32 %76)
  br label %12
}

declare dso_local i32 @__isoc99_scanf(i8*, ...) #1

declare dso_local i32 @printf(i8*, ...) #1


!llvm.module.flags = !{!0}
!llvm.ident = !{!1}

!0 = !{i32 1, !"wchar_size", i32 4}
!1 = !{!"clang version 10.0.0-4ubuntu1 "}
